; Function Attrs: mustprogress uwtable
define hidden noundef nonnull align 8 dereferenceable(8) ptr @_ZN5smtfd14plugin_context7displayERSo(ptr noundef nonnull readonly align 8 captures(none) dereferenceable(72) %0, ptr noundef nonnull returned align 8 dereferenceable(8) %1) local_unnamed_addr #3 align 2 {
  %3 = getelementptr inbounds nuw i8, ptr %0, i64 56
  %4 = load ptr, ptr %3, align 8, !tbaa !3
  %5 = icmp eq ptr %4, null
  br i1 %5, label %._crit_edge, label %_ZN6vectorIPN5smtfd13theory_pluginELb0EjE3endEv.exit

_ZN6vectorIPN5smtfd13theory_pluginELb0EjE3endEv.exit: ; preds = %2
  %6 = getelementptr inbounds i8, ptr %4, i64 -4
  %7 = load i32, ptr %6, align 4, !tbaa !10
  %8 = zext i32 %7 to i64
  %9 = getelementptr inbounds nuw ptr, ptr %4, i64 %8
  %.not10 = icmp eq i32 %7, 0
  br i1 %.not10, label %._crit_edge, label %.lr.ph

._crit_edge:                                      ; preds = %_ZN5smtfd13theory_plugin7displayERSo.exit, %2, %_ZN6vectorIPN5smtfd13theory_pluginELb0EjE3endEv.exit
  ret ptr %1

.lr.ph:                                           ; preds = %_ZN6vectorIPN5smtfd13theory_pluginELb0EjE3endEv.exit, %_ZN5smtfd13theory_plugin7displayERSo.exit
  %.011 = phi ptr [ %21, %_ZN5smtfd13theory_plugin7displayERSo.exit ], [ %4, %_ZN6vectorIPN5smtfd13theory_pluginELb0EjE3endEv.exit ]
  %10 = load ptr, ptr %.011, align 8, !tbaa !12
  %11 = getelementptr inbounds nuw i8, ptr %10, i64 112
  %12 = load ptr, ptr %11, align 8, !tbaa !67
  %13 = icmp eq ptr %12, null
  br i1 %13, label %_ZN5smtfd13theory_plugin7displayERSo.exit, label %_ZNK17scoped_ptr_vectorI9hashtableIN5smtfd5f_appENS1_10f_app_hashENS1_8f_app_eqEEE3endEv.exit.i

_ZNK17scoped_ptr_vectorI9hashtableIN5smtfd5f_appENS1_10f_app_hashENS1_8f_app_eqEEE3endEv.exit.i: ; preds = %.lr.ph
  %14 = getelementptr inbounds i8, ptr %12, i64 -4
  %15 = load i32, ptr %14, align 4, !tbaa !10
  %16 = zext i32 %15 to i64
  %17 = getelementptr inbounds nuw ptr, ptr %12, i64 %16
  %.not10.i = icmp eq i32 %15, 0
  br i1 %.not10.i, label %_ZN5smtfd13theory_plugin7displayERSo.exit, label %.lr.ph.i

.lr.ph.i:                                         ; preds = %_ZNK17scoped_ptr_vectorI9hashtableIN5smtfd5f_appENS1_10f_app_hashENS1_8f_app_eqEEE3endEv.exit.i, %.lr.ph.i
  %.011.i = phi ptr [ %20, %.lr.ph.i ], [ %12, %_ZNK17scoped_ptr_vectorI9hashtableIN5smtfd5f_appENS1_10f_app_hashENS1_8f_app_eqEEE3endEv.exit.i ]
  %18 = load ptr, ptr %.011.i, align 8, !tbaa !70
  %19 = tail call noundef nonnull align 8 dereferenceable(8) ptr @_ZN5smtfd13theory_plugin7displayERSoR9hashtableINS_5f_appENS_10f_app_hashENS_8f_app_eqEE(ptr noundef nonnull align 8 dereferenceable(144) %10, ptr noundef nonnull align 8 dereferenceable(8) %1, ptr noundef nonnull align 8 dereferenceable(36) %18)
  %20 = getelementptr inbounds nuw i8, ptr %.011.i, i64 8
  %.not.i = icmp eq ptr %20, %17
  br i1 %.not.i, label %_ZN5smtfd13theory_plugin7displayERSo.exit, label %.lr.ph.i

_ZN5smtfd13theory_plugin7displayERSo.exit:        ; preds = %.lr.ph.i, %.lr.ph, %_ZNK17scoped_ptr_vectorI9hashtableIN5smtfd5f_appENS1_10f_app_hashENS1_8f_app_eqEEE3endEv.exit.i
  %21 = getelementptr inbounds nuw i8, ptr %.011, i64 8
  %.not = icmp eq ptr %21, %9
  br i1 %.not, label %._crit_edge, label %.lr.ph
}